; Function Attrs: nounwind uwtable
define dso_local ptr @list_pop(ptr noundef %0) #0 {
  %2 = getelementptr inbounds nuw i8, ptr %0, i64 40
  %3 = tail call i32 @pthread_rwlock_wrlock(ptr noundef nonnull %2) #9
  %.not = icmp eq i32 %3, 0
  br i1 %.not, label %6, label %4

4:                                                ; preds = %1
  %5 = tail call ptr @__errno_location() #10
  store i32 %3, ptr %5, align 4
  tail call void (ptr, ...) @fatal_abort(ptr noundef nonnull @.str.2, ptr noundef nonnull @__func__.list_pop) #11
  unreachable

6:                                                ; preds = %1
  %7 = getelementptr inbounds nuw i8, ptr %0, i64 8
  %8 = load ptr, ptr %7, align 8
  %.not.i = icmp eq ptr %8, null
  br i1 %.not.i, label %_list_node_destroy.exit, label %9

9:                                                ; preds = %6
  %10 = load ptr, ptr %8, align 8
  %11 = getelementptr inbounds nuw i8, ptr %8, i64 8
  %12 = load ptr, ptr %11, align 8
  store ptr %12, ptr %7, align 8
  %.not28.i = icmp eq ptr %12, null
  br i1 %.not28.i, label %13, label %15

13:                                               ; preds = %9
  %14 = getelementptr inbounds nuw i8, ptr %0, i64 16
  store ptr %7, ptr %14, align 8
  br label %15

15:                                               ; preds = %13, %9
  %16 = getelementptr inbounds nuw i8, ptr %0, i64 4
  %17 = load i32, ptr %16, align 4
  %18 = add nsw i32 %17, -1
  store i32 %18, ptr %16, align 4
  %19 = getelementptr inbounds nuw i8, ptr %0, i64 24
  %.030.i = load ptr, ptr %19, align 8
  %.not2931.i = icmp eq ptr %.030.i, null
  br i1 %.not2931.i, label %._crit_edge.i, label %.lr.ph.i

.lr.ph.i:                                         ; preds = %15, %31
  %.032.i = phi ptr [ %.0.i, %31 ], [ %.030.i, %15 ]
  %20 = getelementptr inbounds nuw i8, ptr %.032.i, i64 16
  %21 = load ptr, ptr %20, align 8
  %22 = icmp eq ptr %21, %8
  br i1 %22, label %23, label %26

23:                                               ; preds = %.lr.ph.i
  %24 = load ptr, ptr %11, align 8
  store ptr %24, ptr %20, align 8
  %25 = getelementptr inbounds nuw i8, ptr %.032.i, i64 24
  store ptr %7, ptr %25, align 8
  br label %31

26:                                               ; preds = %.lr.ph.i
  %27 = getelementptr inbounds nuw i8, ptr %.032.i, i64 24
  %28 = load ptr, ptr %27, align 8
  %29 = icmp eq ptr %28, %11
  br i1 %29, label %30, label %31

30:                                               ; preds = %26
  store ptr %7, ptr %27, align 8
  br label %31

31:                                               ; preds = %30, %26, %23
  %32 = getelementptr inbounds nuw i8, ptr %.032.i, i64 32
  %.0.i = load ptr, ptr %32, align 8
  %.not29.i = icmp eq ptr %.0.i, null
  br i1 %.not29.i, label %._crit_edge.i, label %.lr.ph.i, !llvm.loop !17

._crit_edge.i:                                    ; preds = %31, %15
  %33 = getelementptr inbounds nuw i8, ptr %0, i64 96
  %34 = load ptr, ptr %33, align 8
  store ptr %34, ptr %11, align 8
  store ptr %8, ptr %33, align 8
  br label %_list_node_destroy.exit

_list_node_destroy.exit:                          ; preds = %6, %._crit_edge.i
  %.026.i = phi ptr [ %10, %._crit_edge.i ], [ null, %6 ]
  %35 = tail call i32 @pthread_rwlock_unlock(ptr noundef nonnull %2) #9
  %.not9 = icmp eq i32 %35, 0
  br i1 %.not9, label %38, label %36

36:                                               ; preds = %_list_node_destroy.exit
  %37 = tail call ptr @__errno_location() #10
  store i32 %35, ptr %37, align 4
  tail call void (ptr, ...) @fatal_abort(ptr noundef nonnull @.str.3, ptr noundef nonnull @__func__.list_pop) #11
  unreachable

38:                                               ; preds = %_list_node_destroy.exit
  ret ptr %.026.i
}